; Function Attrs: inlinehint nounwind uwtable
define internal fastcc void @mark_fsmonitor_valid(ptr noundef captures(none) %0, ptr noundef %1) unnamed_addr #5 {
  %3 = getelementptr inbounds nuw i8, ptr %0, i64 240
  %4 = load ptr, ptr %3, align 8, !tbaa !46
  %5 = tail call i32 @fsm_settings__get_mode(ptr noundef %4) #30
  %6 = icmp sgt i32 %5, 0
  br i1 %6, label %7, label %25

7:                                                ; preds = %2
  %8 = getelementptr inbounds nuw i8, ptr %1, i64 56
  %9 = load i32, ptr %8, align 8, !tbaa !32
  %10 = and i32 %9, 2097152
  %.not = icmp eq i32 %10, 0
  br i1 %.not, label %11, label %25

11:                                               ; preds = %7
  %12 = getelementptr inbounds nuw i8, ptr %1, i64 52
  %13 = load i32, ptr %12, align 4, !tbaa !32
  %14 = and i32 %13, 61440
  %15 = icmp eq i32 %14, 57344
  br i1 %15, label %25, label %16

16:                                               ; preds = %11
  %17 = getelementptr inbounds nuw i8, ptr %0, i64 20
  %18 = load i32, ptr %17, align 4, !tbaa !33
  %19 = or i32 %18, 256
  store i32 %19, ptr %17, align 4, !tbaa !33
  %20 = load i32, ptr %8, align 8, !tbaa !32
  %21 = or i32 %20, 2097152
  store i32 %21, ptr %8, align 8, !tbaa !32
  %trace_fsmonitor.val = load i32, ptr getelementptr inbounds nuw (i8, ptr @trace_fsmonitor, i64 8), align 8, !tbaa !47
  %trace_fsmonitor.val7 = load i8, ptr getelementptr inbounds nuw (i8, ptr @trace_fsmonitor, i64 12), align 4
  %.not.i = icmp eq i32 %trace_fsmonitor.val, 0
  %22 = and i8 %trace_fsmonitor.val7, 1
  %.not68 = icmp ne i8 %22, 0
  %.not6 = select i1 %.not.i, i1 %.not68, i1 false
  br i1 %.not6, label %25, label %23

23:                                               ; preds = %16
  %24 = getelementptr inbounds nuw i8, ptr %1, i64 108
  tail call void (ptr, i32, ptr, ptr, ...) @trace_printf_key_fl(ptr noundef nonnull @.str.49, i32 noundef 49, ptr noundef nonnull @trace_fsmonitor, ptr noundef nonnull @.str.50, ptr noundef nonnull %24) #30
  br label %25

25:                                               ; preds = %2, %7, %23, %16, %11
  ret void
}